target datalayout = "e-m:e-p270:32:32-p271:32:32-p272:64:64-i64:64-i128:128-f80:128-n8:16:32:64-S128"
target triple = "x86_64-unknown-linux-gnu"

%"class.smt::eq_justification" = type { ptr }
%"class.(anonymous namespace)::mam_impl" = type { %"class.smt::mam", ptr, i8, %class.trail_stack, %"class.(anonymous namespace)::label_hasher", %"class.(anonymous namespace)::code_tree_manager", %"class.(anonymous namespace)::compiler", %"class.(anonymous namespace)::interpreter", %"class.(anonymous namespace)::code_tree_map", %class.ptr_vector.20, %class.ptr_vector.22, %class.ptr_vector.20, %class.svector.24, %class.svector.7, %class.svector.7, %class.vector.26, ptr, %class.region, [64 x [64 x %"struct.std::pair"]], [64 x [64 x ptr]], %class.pool, %class.vector.27, %class.ptr_vector.28, %class.obj_hashtable, ptr, ptr }
%"class.smt::mam" = type { ptr, ptr }
%class.trail_stack = type { %class.ptr_vector, %class.svector, %class.region }
%class.ptr_vector = type { %class.vector }
%class.vector = type { ptr }
%class.svector = type { %class.vector.0 }
%class.vector.0 = type { ptr }
%"class.(anonymous namespace)::label_hasher" = type { %class.svector.1 }
%class.svector.1 = type { %class.vector.2 }
%class.vector.2 = type { ptr }
%"class.(anonymous namespace)::code_tree_manager" = type { ptr, ptr, ptr }
%"class.(anonymous namespace)::compiler" = type { ptr, ptr, ptr, ptr, i8, %class.ptr_vector.3, %class.svector, %class.svector, %class.svector.5, ptr, ptr, ptr, i32, i8, %class.svector.7, %class.obj_map, %class.svector.9, %class.svector, %class.ptr_vector.11, %class.ptr_vector.11, %class.ptr_vector.11 }
%class.ptr_vector.3 = type { %class.vector.4 }
%class.vector.4 = type { ptr }
%class.svector.5 = type { %class.vector.6 }
%class.vector.6 = type { ptr }
%class.obj_map = type { %class.core_hashtable }
%class.core_hashtable = type <{ ptr, i32, i32, i32, [4 x i8] }>
%class.svector.9 = type { %class.vector.10 }
%class.vector.10 = type { ptr }
%class.ptr_vector.11 = type { %class.vector.12 }
%class.vector.12 = type { ptr }
%"class.(anonymous namespace)::interpreter" = type { ptr, ptr, ptr, i8, %class.ptr_vector.13, %class.ptr_vector.13, %class.ptr_vector.13, %class.svector.15, i32, ptr, i32, i32, i32, i32, ptr, ptr, ptr, ptr, %class.vector.17, i32, %class.ptr_vector.13, %class.svector, %class.svector, %class.pool }
%class.svector.15 = type { %class.vector.16 }
%class.vector.16 = type { ptr }
%class.vector.17 = type { ptr }
%class.ptr_vector.13 = type { %class.vector.14 }
%class.vector.14 = type { ptr }
%"class.(anonymous namespace)::code_tree_map" = type { ptr, ptr, %class.ptr_vector.20, ptr }
%class.ptr_vector.22 = type { %class.vector.23 }
%class.vector.23 = type { ptr }
%class.ptr_vector.20 = type { %class.vector.21 }
%class.vector.21 = type { ptr }
%class.svector.24 = type { %class.vector.25 }
%class.vector.25 = type { ptr }
%class.svector.7 = type { %class.vector.8 }
%class.vector.8 = type { ptr }
%class.vector.26 = type { ptr }
%class.region = type { ptr, ptr, ptr, ptr, ptr }
%"struct.std::pair" = type { ptr, ptr }
%class.pool = type { %class.ptr_vector.18 }
%class.ptr_vector.18 = type { %class.vector.19 }
%class.vector.19 = type { ptr }
%class.vector.27 = type { ptr }
%class.ptr_vector.28 = type { %class.vector.29 }
%class.vector.29 = type { ptr }
%class.obj_hashtable = type { %class.core_hashtable.base.31, [4 x i8] }
%class.core_hashtable.base.31 = type <{ ptr, i32, i32, i32 }>
%class.approx_set = type { %class.approx_set_tpl }
%class.approx_set_tpl = type { i64 }
%"class.smt::enode" = type { ptr, ptr, ptr, ptr, i32, i32, i32, i16, i32, i8, i8, %class.ptr_vector.13, %class.id_var_list, %"struct.smt::trans_justification", %class.approx_set, %class.approx_set, [0 x ptr] }
%class.id_var_list = type { i32, ptr }
%"struct.smt::trans_justification" = type { ptr, %"class.smt::eq_justification" }
%"class.approx_set::iterator" = type <{ i64, i32, [4 x i8] }>

; Function Attrs: mustprogress nounwind uwtable
define linkonce_odr hidden void @_ZN10approx_set8iterator12move_to_nextEv(ptr noundef nonnull align 8 dereferenceable(12) %this) #4 comdat align 2 {
entry:
  %this.addr = alloca ptr, align 8
  store ptr %this, ptr %this.addr, align 8
  %this1 = load ptr, ptr %this.addr, align 8
  br label %while.cond

while.cond:                                       ; preds = %if.end, %entry
  %m_set = getelementptr inbounds %"class.approx_set::iterator", ptr %this1, i32 0, i32 0
  %0 = load i64, ptr %m_set, align 8
  %cmp = icmp ugt i64 %0, 0
  br i1 %cmp, label %while.body, label %while.end

while.body:                                       ; preds = %while.cond
  %m_set2 = getelementptr inbounds %"class.approx_set::iterator", ptr %this1, i32 0, i32 0
  %1 = load i64, ptr %m_set2, align 8
  %and = and i64 %1, 1
  %cmp3 = icmp ne i64 %and, 0
  br i1 %cmp3, label %if.then, label %if.end

if.then:                                          ; preds = %while.body
  br label %while.end

if.end:                                           ; preds = %while.body
  %m_val = getelementptr inbounds %"class.approx_set::iterator", ptr %this1, i32 0, i32 1
  %2 = load i32, ptr %m_val, align 8
  %inc = add i32 %2, 1
  store i32 %inc, ptr %m_val, align 8
  %m_set4 = getelementptr inbounds %"class.approx_set::iterator", ptr %this1, i32 0, i32 0
  %3 = load i64, ptr %m_set4, align 8
  %shr = lshr i64 %3, 1
  %m_set5 = getelementptr inbounds %"class.approx_set::iterator", ptr %this1, i32 0, i32 0
  store i64 %shr, ptr %m_set5, align 8
  br label %while.cond, !llvm.loop !134

while.end:                                        ; preds = %if.then, %while.cond
  ret void
}

; Function Attrs: mustprogress uwtable
define linkonce_odr hidden void @_ZN10approx_set8iteratorC2Ey(ptr noundef nonnull align 8 dereferenceable(12) %this, i64 noundef %s) unnamed_addr #5 comdat align 2 {
entry:
  %this.addr = alloca ptr, align 8
  %s.addr = alloca i64, align 8
  store ptr %this, ptr %this.addr, align 8
  store i64 %s, ptr %s.addr, align 8
  %this1 = load ptr, ptr %this.addr, align 8
  %m_set = getelementptr inbounds %"class.approx_set::iterator", ptr %this1, i32 0, i32 0
  %0 = load i64, ptr %s.addr, align 8
  store i64 %0, ptr %m_set, align 8
  %m_val = getelementptr inbounds %"class.approx_set::iterator", ptr %this1, i32 0, i32 1
  store i32 0, ptr %m_val, align 8
  call void @_ZN10approx_set8iterator12move_to_nextEv(ptr noundef nonnull align 8 dereferenceable(12) %this1)
  ret void
}

; Function Attrs: mustprogress nounwind uwtable
define linkonce_odr hidden noundef nonnull align 8 dereferenceable(12) ptr @_ZN10approx_set8iteratorppEv(ptr noundef nonnull align 8 dereferenceable(12) %this) #4 comdat align 2 {
entry:
  %this.addr = alloca ptr, align 8
  store ptr %this, ptr %this.addr, align 8
  %this1 = load ptr, ptr %this.addr, align 8
  %m_val = getelementptr inbounds %"class.approx_set::iterator", ptr %this1, i32 0, i32 1
  %0 = load i32, ptr %m_val, align 8
  %inc = add i32 %0, 1
  store i32 %inc, ptr %m_val, align 8
  %m_set = getelementptr inbounds %"class.approx_set::iterator", ptr %this1, i32 0, i32 0
  %1 = load i64, ptr %m_set, align 8
  %shr = lshr i64 %1, 1
  %m_set2 = getelementptr inbounds %"class.approx_set::iterator", ptr %this1, i32 0, i32 0
  store i64 %shr, ptr %m_set2, align 8
  call void @_ZN10approx_set8iterator12move_to_nextEv(ptr noundef nonnull align 8 dereferenceable(12) %this1)
  ret ptr %this1
}

; Function Attrs: mustprogress nounwind uwtable
define linkonce_odr hidden noundef i32 @_ZNK10approx_set8iteratordeEv(ptr noundef nonnull align 8 dereferenceable(12) %this) #4 comdat align 2 {
entry:
  %this.addr = alloca ptr, align 8
  store ptr %this, ptr %this.addr, align 8
  %this1 = load ptr, ptr %this.addr, align 8
  %m_val = getelementptr inbounds %"class.approx_set::iterator", ptr %this1, i32 0, i32 1
  %0 = load i32, ptr %m_val, align 8
  ret i32 %0
}

; Function Attrs: mustprogress nounwind uwtable
define linkonce_odr hidden noundef zeroext i1 @_ZNK10approx_set8iteratorneERKS0_(ptr noundef nonnull align 8 dereferenceable(12) %this, ptr noundef nonnull align 8 dereferenceable(12) %it) #4 comdat align 2 {
entry:
  %this.addr = alloca ptr, align 8
  %it.addr = alloca ptr, align 8
  store ptr %this, ptr %this.addr, align 8
  store ptr %it, ptr %it.addr, align 8
  %this1 = load ptr, ptr %this.addr, align 8
  %m_set = getelementptr inbounds %"class.approx_set::iterator", ptr %this1, i32 0, i32 0
  %0 = load i64, ptr %m_set, align 8
  %1 = load ptr, ptr %it.addr, align 8
  %m_set2 = getelementptr inbounds %"class.approx_set::iterator", ptr %1, i32 0, i32 0
  %2 = load i64, ptr %m_set2, align 8
  %cmp = icmp ne i64 %0, %2
  ret i1 %cmp
}

; Function Attrs: mustprogress uwtable
define linkonce_odr hidden { i64, i32 } @_ZN10approx_set3endEv() #5 comdat align 2 {
entry:
  %retval = alloca %"class.approx_set::iterator", align 8
  call void @_ZN10approx_set8iteratorC2Ey(ptr noundef nonnull align 8 dereferenceable(12) %retval, i64 noundef 0)
  %0 = load { i64, i32 }, ptr %retval, align 8
  ret { i64, i32 } %0
}

; Function Attrs: mustprogress uwtable
define linkonce_odr hidden { i64, i32 } @_ZNK10approx_set5beginEv(ptr noundef nonnull align 8 dereferenceable(8) %this) #5 comdat align 2 {
entry:
  %retval = alloca %"class.approx_set::iterator", align 8
  %this.addr = alloca ptr, align 8
  store ptr %this, ptr %this.addr, align 8
  %this1 = load ptr, ptr %this.addr, align 8
  %m_set = getelementptr inbounds %class.approx_set_tpl, ptr %this1, i32 0, i32 0
  %0 = load i64, ptr %m_set, align 8
  call void @_ZN10approx_set8iteratorC2Ey(ptr noundef nonnull align 8 dereferenceable(12) %retval, i64 noundef %0)
  %1 = load { i64, i32 }, ptr %retval, align 8
  ret { i64, i32 } %1
}

; Function Attrs: mustprogress nounwind uwtable
define linkonce_odr hidden noundef zeroext i1 @_ZNK14approx_set_tplIj3u2uyE5emptyEv(ptr noundef nonnull align 8 dereferenceable(8) %this) #4 comdat align 2 {
entry:
  %this.addr = alloca ptr, align 8
  store ptr %this, ptr %this.addr, align 8
  %this1 = load ptr, ptr %this.addr, align 8
  %m_set = getelementptr inbounds %class.approx_set_tpl, ptr %this1, i32 0, i32 0
  %0 = load i64, ptr %m_set, align 8
  %cmp = icmp eq i64 %0, 0
  ret i1 %cmp
}

; Function Attrs: mustprogress nounwind uwtable
define linkonce_odr hidden noundef nonnull align 8 dereferenceable(8) ptr @_ZN3smt5enode8get_lblsEv(ptr noundef nonnull align 8 dereferenceable(112) %this) #4 comdat align 2 {
entry:
  %this.addr = alloca ptr, align 8
  store ptr %this, ptr %this.addr, align 8
  %this1 = load ptr, ptr %this.addr, align 8
  %m_lbls = getelementptr inbounds %"class.smt::enode", ptr %this1, i32 0, i32 14
  ret ptr %m_lbls
}

; Function Attrs: mustprogress nounwind uwtable
define linkonce_odr hidden noundef nonnull align 8 dereferenceable(8) ptr @_ZN3smt5enode9get_plblsEv(ptr noundef nonnull align 8 dereferenceable(112) %this) #4 comdat align 2 {
entry:
  %this.addr = alloca ptr, align 8
  store ptr %this, ptr %this.addr, align 8
  %this1 = load ptr, ptr %this.addr, align 8
  %m_plbls = getelementptr inbounds %"class.smt::enode", ptr %this1, i32 0, i32 15
  ret ptr %m_plbls
}

; Function Attrs: mustprogress uwtable
define internal void @_ZN12_GLOBAL__N_18mam_impl10process_pcEPN3smt5enodeES3_(ptr noundef nonnull align 8 dereferenceable(98976) %this, ptr noundef %r1, ptr noundef %r2) #5 align 2 {
entry:
  %this.addr = alloca ptr, align 8
  %r1.addr = alloca ptr, align 8
  %r2.addr = alloca ptr, align 8
  %plbls = alloca ptr, align 8
  %clbls = alloca ptr, align 8
  %__range3 = alloca ptr, align 8
  %__begin3 = alloca %"class.approx_set::iterator", align 8
  %__end3 = alloca %"class.approx_set::iterator", align 8
  %plbl1 = alloca i32, align 4
  %__range4 = alloca ptr, align 8
  %__begin4 = alloca %"class.approx_set::iterator", align 8
  %__end4 = alloca %"class.approx_set::iterator", align 8
  %lbl2 = alloca i32, align 4
  store ptr %this, ptr %this.addr, align 8
  store ptr %r1, ptr %r1.addr, align 8
  store ptr %r2, ptr %r2.addr, align 8
  %this1 = load ptr, ptr %this.addr, align 8
  %0 = load ptr, ptr %r1.addr, align 8
  %call = call noundef nonnull align 8 dereferenceable(8) ptr @_ZN3smt5enode9get_plblsEv(ptr noundef nonnull align 8 dereferenceable(112) %0)
  store ptr %call, ptr %plbls, align 8
  %1 = load ptr, ptr %r2.addr, align 8
  %call2 = call noundef nonnull align 8 dereferenceable(8) ptr @_ZN3smt5enode8get_lblsEv(ptr noundef nonnull align 8 dereferenceable(112) %1)
  store ptr %call2, ptr %clbls, align 8
  %2 = load ptr, ptr %plbls, align 8
  %call3 = call noundef zeroext i1 @_ZNK14approx_set_tplIj3u2uyE5emptyEv(ptr noundef nonnull align 8 dereferenceable(8) %2)
  br i1 %call3, label %if.end23, label %land.lhs.true

land.lhs.true:                                    ; preds = %entry
  %3 = load ptr, ptr %clbls, align 8
  %call4 = call noundef zeroext i1 @_ZNK14approx_set_tplIj3u2uyE5emptyEv(ptr noundef nonnull align 8 dereferenceable(8) %3)
  br i1 %call4, label %if.end23, label %if.then

if.then:                                          ; preds = %land.lhs.true
  %4 = load ptr, ptr %plbls, align 8
  store ptr %4, ptr %__range3, align 8
  %5 = load ptr, ptr %__range3, align 8
  %call5 = call { i64, i32 } @_ZNK10approx_set5beginEv(ptr noundef nonnull align 8 dereferenceable(8) %5)
  %6 = getelementptr inbounds { i64, i32 }, ptr %__begin3, i32 0, i32 0
  %7 = extractvalue { i64, i32 } %call5, 0
  store i64 %7, ptr %6, align 8
  %8 = getelementptr inbounds { i64, i32 }, ptr %__begin3, i32 0, i32 1
  %9 = extractvalue { i64, i32 } %call5, 1
  store i32 %9, ptr %8, align 8
  %call6 = call { i64, i32 } @_ZN10approx_set3endEv()
  %10 = getelementptr inbounds { i64, i32 }, ptr %__end3, i32 0, i32 0
  %11 = extractvalue { i64, i32 } %call6, 0
  store i64 %11, ptr %10, align 8
  %12 = getelementptr inbounds { i64, i32 }, ptr %__end3, i32 0, i32 1
  %13 = extractvalue { i64, i32 } %call6, 1
  store i32 %13, ptr %12, align 8
  br label %for.cond

for.cond:                                         ; preds = %for.inc20, %if.then
  %call7 = call noundef zeroext i1 @_ZNK10approx_set8iteratorneERKS0_(ptr noundef nonnull align 8 dereferenceable(12) %__begin3, ptr noundef nonnull align 8 dereferenceable(12) %__end3)
  br i1 %call7, label %for.body, label %for.end22

for.body:                                         ; preds = %for.cond
  %call8 = call noundef i32 @_ZNK10approx_set8iteratordeEv(ptr noundef nonnull align 8 dereferenceable(12) %__begin3)
  store i32 %call8, ptr %plbl1, align 4
  %m_context = getelementptr inbounds %"class.smt::mam", ptr %this1, i32 0, i32 1
  %14 = load ptr, ptr %m_context, align 8
  %call9 = call noundef zeroext i1 @_ZN3smt7context15get_cancel_flagEv(ptr noundef nonnull align 8 dereferenceable(11616) %14)
  br i1 %call9, label %if.then10, label %if.end

if.then10:                                        ; preds = %for.body
  br label %for.end22

if.end:                                           ; preds = %for.body
  %15 = load ptr, ptr %clbls, align 8
  store ptr %15, ptr %__range4, align 8
  %16 = load ptr, ptr %__range4, align 8
  %call11 = call { i64, i32 } @_ZNK10approx_set5beginEv(ptr noundef nonnull align 8 dereferenceable(8) %16)
  %17 = getelementptr inbounds { i64, i32 }, ptr %__begin4, i32 0, i32 0
  %18 = extractvalue { i64, i32 } %call11, 0
  store i64 %18, ptr %17, align 8
  %19 = getelementptr inbounds { i64, i32 }, ptr %__begin4, i32 0, i32 1
  %20 = extractvalue { i64, i32 } %call11, 1
  store i32 %20, ptr %19, align 8
  %call12 = call { i64, i32 } @_ZN10approx_set3endEv()
  %21 = getelementptr inbounds { i64, i32 }, ptr %__end4, i32 0, i32 0
  %22 = extractvalue { i64, i32 } %call12, 0
  store i64 %22, ptr %21, align 8
  %23 = getelementptr inbounds { i64, i32 }, ptr %__end4, i32 0, i32 1
  %24 = extractvalue { i64, i32 } %call12, 1
  store i32 %24, ptr %23, align 8
  br label %for.cond13

for.cond13:                                       ; preds = %for.inc, %if.end
  %call14 = call noundef zeroext i1 @_ZNK10approx_set8iteratorneERKS0_(ptr noundef nonnull align 8 dereferenceable(12) %__begin4, ptr noundef nonnull align 8 dereferenceable(12) %__end4)
  br i1 %call14, label %for.body15, label %for.end

for.body15:                                       ; preds = %for.cond13
  %call16 = call noundef i32 @_ZNK10approx_set8iteratordeEv(ptr noundef nonnull align 8 dereferenceable(12) %__begin4)
  store i32 %call16, ptr %lbl2, align 4
  %25 = load ptr, ptr %r1.addr, align 8
  %m_pc = getelementptr inbounds %"class.(anonymous namespace)::mam_impl", ptr %this1, i32 0, i32 19
  %26 = load i32, ptr %plbl1, align 4
  %idxprom = zext i32 %26 to i64
  %arrayidx = getelementptr inbounds [64 x [64 x ptr]], ptr %m_pc, i64 0, i64 %idxprom
  %27 = load i32, ptr %lbl2, align 4
  %idxprom17 = zext i32 %27 to i64
  %arrayidx18 = getelementptr inbounds [64 x ptr], ptr %arrayidx, i64 0, i64 %idxprom17
  %28 = load ptr, ptr %arrayidx18, align 8
  call void @_ZN12_GLOBAL__N_18mam_impl15collect_parentsEPN3smt5enodeEPNS_9path_treeE(ptr noundef nonnull align 8 dereferenceable(98976) %this1, ptr noundef %25, ptr noundef %28)
  br label %for.inc

for.inc:                                          ; preds = %for.body15
  %call19 = call noundef nonnull align 8 dereferenceable(12) ptr @_ZN10approx_set8iteratorppEv(ptr noundef nonnull align 8 dereferenceable(12) %__begin4)
  br label %for.cond13

for.end:                                          ; preds = %for.cond13
  br label %for.inc20

for.inc20:                                        ; preds = %for.end
  %call21 = call noundef nonnull align 8 dereferenceable(12) ptr @_ZN10approx_set8iteratorppEv(ptr noundef nonnull align 8 dereferenceable(12) %__begin3)
  br label %for.cond

for.end22:                                        ; preds = %if.then10, %for.cond
  br label %if.end23

if.end23:                                         ; preds = %for.end22, %land.lhs.true, %entry
  ret void
}