; Function Attrs: mustprogress uwtable
define internal fastcc void @_ZN12_GLOBAL__N_18mam_impl10process_pcEPN3smt5enodeES3_(ptr noundef nonnull align 8 dereferenceable(98976) %this, ptr noundef %r1, ptr nocapture noundef readonly %r2) unnamed_addr #3 align 2 {
entry:
  %m_plbls.i = getelementptr inbounds i8, ptr %r1, i64 104
  %m_lbls.i = getelementptr inbounds i8, ptr %r2, i64 96
  %0 = load i64, ptr %m_plbls.i, align 8
  %cmp.i = icmp eq i64 %0, 0
  br i1 %cmp.i, label %if.end23, label %land.lhs.true

land.lhs.true:                                    ; preds = %entry
  %1 = load i64, ptr %m_lbls.i, align 8
  %cmp.i4 = icmp eq i64 %1, 0
  br i1 %cmp.i4, label %if.end23, label %if.then

if.then:                                          ; preds = %land.lhs.true
  %and3.i.i.i = and i64 %0, 1
  %cmp3.not4.i.i.i = icmp eq i64 %and3.i.i.i, 0
  br i1 %cmp3.not4.i.i.i, label %if.end.i.i.i, label %for.body.lr.ph

if.end.i.i.i:                                     ; preds = %if.then, %if.end.i.i.i
  %2 = phi i32 [ %inc.i.i.i, %if.end.i.i.i ], [ 0, %if.then ]
  %shr16.i.i.i = phi i64 [ %shr.i.i.i, %if.end.i.i.i ], [ %0, %if.then ]
  %inc.i.i.i = add nuw nsw i32 %2, 1
  %shr.i.i.i = lshr exact i64 %shr16.i.i.i, 1
  %cmp.not.i.i.i = icmp ne i64 %shr16.i.i.i, 0
  %3 = and i64 %shr16.i.i.i, 2
  %cmp3.not.i.i.i = icmp eq i64 %3, 0
  %or.cond.i.i.i = and i1 %cmp.not.i.i.i, %cmp3.not.i.i.i
  br i1 %or.cond.i.i.i, label %if.end.i.i.i, label %_ZNK10approx_set5beginEv.exit, !llvm.loop !27

_ZNK10approx_set5beginEv.exit:                    ; preds = %if.end.i.i.i
  %cmp.i5.not47 = icmp eq i64 %shr16.i.i.i, 0
  br i1 %cmp.i5.not47, label %if.end23, label %for.body.lr.ph

for.body.lr.ph:                                   ; preds = %if.then, %_ZNK10approx_set5beginEv.exit
  %retval.sroa.0.0.i54 = phi i64 [ %shr.i.i.i, %_ZNK10approx_set5beginEv.exit ], [ %0, %if.then ]
  %retval.sroa.3.0.i53 = phi i32 [ %inc.i.i.i, %_ZNK10approx_set5beginEv.exit ], [ 0, %if.then ]
  %m_context = getelementptr inbounds i8, ptr %this, i64 8
  %m_pc = getelementptr inbounds i8, ptr %this, i64 66144
  br label %for.body

for.body:                                         ; preds = %for.body.lr.ph, %_ZN10approx_set8iteratorppEv.exit39
  %__begin3.sroa.5.049 = phi i32 [ %retval.sroa.3.0.i53, %for.body.lr.ph ], [ %__begin3.sroa.5.1, %_ZN10approx_set8iteratorppEv.exit39 ]
  %__begin3.sroa.0.048 = phi i64 [ %retval.sroa.0.0.i54, %for.body.lr.ph ], [ %__begin3.sroa.0.1, %_ZN10approx_set8iteratorppEv.exit39 ]
  %4 = load ptr, ptr %m_context, align 8
  %call9 = tail call noundef zeroext i1 @_ZN3smt7context15get_cancel_flagEv(ptr noundef nonnull align 8 dereferenceable(11616) %4)
  br i1 %call9, label %if.end23, label %if.end

if.end:                                           ; preds = %for.body
  %5 = load i64, ptr %m_lbls.i, align 8
  %cmp.not2.i.i.i6 = icmp ne i64 %5, 0
  %and3.i.i.i7 = and i64 %5, 1
  %cmp3.not4.i.i.i8 = icmp eq i64 %and3.i.i.i7, 0
  %or.cond5.i.i.i9 = and i1 %cmp.not2.i.i.i6, %cmp3.not4.i.i.i8
  br i1 %or.cond5.i.i.i9, label %if.end.i.i.i14, label %_ZNK10approx_set5beginEv.exit21

if.end.i.i.i14:                                   ; preds = %if.end, %if.end.i.i.i14
  %6 = phi i32 [ %inc.i.i.i16, %if.end.i.i.i14 ], [ 0, %if.end ]
  %shr16.i.i.i15 = phi i64 [ %shr.i.i.i17, %if.end.i.i.i14 ], [ %5, %if.end ]
  %inc.i.i.i16 = add nuw nsw i32 %6, 1
  %shr.i.i.i17 = lshr exact i64 %shr16.i.i.i15, 1
  %cmp.not.i.i.i18 = icmp ne i64 %shr16.i.i.i15, 0
  %7 = and i64 %shr16.i.i.i15, 2
  %cmp3.not.i.i.i19 = icmp eq i64 %7, 0
  %or.cond.i.i.i20 = and i1 %cmp.not.i.i.i18, %cmp3.not.i.i.i19
  br i1 %or.cond.i.i.i20, label %if.end.i.i.i14, label %_ZNK10approx_set5beginEv.exit21, !llvm.loop !27

_ZNK10approx_set5beginEv.exit21:                  ; preds = %if.end.i.i.i14, %if.end
  %retval.sroa.3.0.i10 = phi i32 [ 0, %if.end ], [ %inc.i.i.i16, %if.end.i.i.i14 ]
  %retval.sroa.0.0.i11 = phi i64 [ %5, %if.end ], [ %shr.i.i.i17, %if.end.i.i.i14 ]
  %cmp.i22.not44 = icmp eq i64 %retval.sroa.0.0.i11, 0
  br i1 %cmp.i22.not44, label %for.inc20, label %for.body15.lr.ph

for.body15.lr.ph:                                 ; preds = %_ZNK10approx_set5beginEv.exit21
  %idxprom = zext i32 %__begin3.sroa.5.049 to i64
  br label %for.body15

for.body15:                                       ; preds = %for.body15.lr.ph, %_ZN10approx_set8iteratorppEv.exit
  %__begin4.sroa.0.046 = phi i64 [ %retval.sroa.0.0.i11, %for.body15.lr.ph ], [ %__begin4.sroa.0.1, %_ZN10approx_set8iteratorppEv.exit ]
  %__begin4.sroa.5.045 = phi i32 [ %retval.sroa.3.0.i10, %for.body15.lr.ph ], [ %__begin4.sroa.5.1, %_ZN10approx_set8iteratorppEv.exit ]
  %idxprom17 = zext i32 %__begin4.sroa.5.045 to i64
  %arrayidx18 = getelementptr inbounds [64 x [64 x ptr]], ptr %m_pc, i64 0, i64 %idxprom, i64 %idxprom17
  %8 = load ptr, ptr %arrayidx18, align 8
  tail call fastcc void @_ZN12_GLOBAL__N_18mam_impl15collect_parentsEPN3smt5enodeEPNS_9path_treeE(ptr noundef nonnull align 8 dereferenceable(98976) %this, ptr noundef nonnull %r1, ptr noundef %8)
  %inc.i = add i32 %__begin4.sroa.5.045, 1
  %shr.i = lshr i64 %__begin4.sroa.0.046, 1
  %cmp.not2.i.i = icmp ne i64 %__begin4.sroa.0.046, 1
  %9 = and i64 %__begin4.sroa.0.046, 2
  %cmp3.not4.i.i = icmp eq i64 %9, 0
  %or.cond5.i.i = and i1 %cmp.not2.i.i, %cmp3.not4.i.i
  br i1 %or.cond5.i.i, label %if.end.i.i, label %_ZN10approx_set8iteratorppEv.exit

if.end.i.i:                                       ; preds = %for.body15, %if.end.i.i
  %10 = phi i32 [ %inc.i.i, %if.end.i.i ], [ %inc.i, %for.body15 ]
  %shr16.i.i = phi i64 [ %shr.i.i, %if.end.i.i ], [ %shr.i, %for.body15 ]
  %inc.i.i = add i32 %10, 1
  %shr.i.i = lshr exact i64 %shr16.i.i, 1
  %cmp.not.i.i = icmp ne i64 %shr16.i.i, 0
  %11 = and i64 %shr16.i.i, 2
  %cmp3.not.i.i = icmp eq i64 %11, 0
  %or.cond.i.i = and i1 %cmp.not.i.i, %cmp3.not.i.i
  br i1 %or.cond.i.i, label %if.end.i.i, label %_ZN10approx_set8iteratorppEv.exit, !llvm.loop !27

_ZN10approx_set8iteratorppEv.exit:                ; preds = %if.end.i.i, %for.body15
  %__begin4.sroa.5.1 = phi i32 [ %inc.i, %for.body15 ], [ %inc.i.i, %if.end.i.i ]
  %__begin4.sroa.0.1 = phi i64 [ %shr.i, %for.body15 ], [ %shr.i.i, %if.end.i.i ]
  %cmp.i22.not = icmp eq i64 %__begin4.sroa.0.1, 0
  br i1 %cmp.i22.not, label %for.inc20, label %for.body15

for.inc20:                                        ; preds = %_ZN10approx_set8iteratorppEv.exit, %_ZNK10approx_set5beginEv.exit21
  %inc.i26 = add i32 %__begin3.sroa.5.049, 1
  %shr.i27 = lshr i64 %__begin3.sroa.0.048, 1
  %cmp.not2.i.i28 = icmp ne i64 %__begin3.sroa.0.048, 1
  %12 = and i64 %__begin3.sroa.0.048, 2
  %cmp3.not4.i.i29 = icmp eq i64 %12, 0
  %or.cond5.i.i30 = and i1 %cmp.not2.i.i28, %cmp3.not4.i.i29
  br i1 %or.cond5.i.i30, label %if.end.i.i31, label %_ZN10approx_set8iteratorppEv.exit39

if.end.i.i31:                                     ; preds = %for.inc20, %if.end.i.i31
  %13 = phi i32 [ %inc.i.i33, %if.end.i.i31 ], [ %inc.i26, %for.inc20 ]
  %shr16.i.i32 = phi i64 [ %shr.i.i34, %if.end.i.i31 ], [ %shr.i27, %for.inc20 ]
  %inc.i.i33 = add i32 %13, 1
  %shr.i.i34 = lshr exact i64 %shr16.i.i32, 1
  %cmp.not.i.i35 = icmp ne i64 %shr16.i.i32, 0
  %14 = and i64 %shr16.i.i32, 2
  %cmp3.not.i.i36 = icmp eq i64 %14, 0
  %or.cond.i.i37 = and i1 %cmp.not.i.i35, %cmp3.not.i.i36
  br i1 %or.cond.i.i37, label %if.end.i.i31, label %_ZN10approx_set8iteratorppEv.exit39, !llvm.loop !27

_ZN10approx_set8iteratorppEv.exit39:              ; preds = %if.end.i.i31, %for.inc20
  %__begin3.sroa.0.1 = phi i64 [ %shr.i27, %for.inc20 ], [ %shr.i.i34, %if.end.i.i31 ]
  %__begin3.sroa.5.1 = phi i32 [ %inc.i26, %for.inc20 ], [ %inc.i.i33, %if.end.i.i31 ]
  %cmp.i5.not = icmp eq i64 %__begin3.sroa.0.1, 0
  br i1 %cmp.i5.not, label %if.end23, label %for.body

if.end23:                                         ; preds = %for.body, %_ZN10approx_set8iteratorppEv.exit39, %_ZNK10approx_set5beginEv.exit, %land.lhs.true, %entry
  ret void
}